target datalayout = "e-m:e-p270:32:32-p271:32:32-p272:64:64-i64:64-i128:128-f80:128-n8:16:32:64-S128"
target triple = "x86_64-pc-linux-gnu"

%struct.lean_object = type { i32, i32 }

; Function Attrs: alwaysinline nounwind uwtable
define internal void @lean_dec_ref(ptr noundef %0) #1 {
  %2 = alloca ptr, align 8
  store ptr %0, ptr %2, align 8, !tbaa !8
  %3 = load ptr, ptr %2, align 8, !tbaa !8
  %4 = getelementptr inbounds nuw %struct.lean_object, ptr %3, i32 0, i32 0
  %5 = load i32, ptr %4, align 4, !tbaa !13
  %6 = icmp sgt i32 %5, 1
  %7 = zext i1 %6 to i32
  %8 = sext i32 %7 to i64
  %9 = call i64 @llvm.expect.i64(i64 %8, i64 1)
  %10 = icmp ne i64 %9, 0
  br i1 %10, label %11, label %16

11:                                               ; preds = %1
  %12 = load ptr, ptr %2, align 8, !tbaa !8
  %13 = getelementptr inbounds nuw %struct.lean_object, ptr %12, i32 0, i32 0
  %14 = load i32, ptr %13, align 4, !tbaa !13
  %15 = add i32 %14, -1
  store i32 %15, ptr %13, align 4, !tbaa !13
  br label %24

16:                                               ; preds = %1
  %17 = load ptr, ptr %2, align 8, !tbaa !8
  %18 = getelementptr inbounds nuw %struct.lean_object, ptr %17, i32 0, i32 0
  %19 = load i32, ptr %18, align 4, !tbaa !13
  %20 = icmp ne i32 %19, 0
  br i1 %20, label %21, label %23

21:                                               ; preds = %16
  %22 = load ptr, ptr %2, align 8, !tbaa !8
  call void @lean_dec_ref_cold(ptr noundef %22)
  br label %23

23:                                               ; preds = %21, %16
  br label %24

24:                                               ; preds = %23, %11
  ret void
}

; Function Attrs: alwaysinline nounwind uwtable
define internal zeroext i1 @lean_is_scalar(ptr noundef %0) #1 {
  %2 = alloca ptr, align 8
  store ptr %0, ptr %2, align 8, !tbaa !8
  %3 = load ptr, ptr %2, align 8, !tbaa !8
  %4 = ptrtoint ptr %3 to i64
  %5 = and i64 %4, 1
  %6 = icmp eq i64 %5, 1
  ret i1 %6
}

; Function Attrs: alwaysinline nounwind uwtable
define internal void @lean_dec(ptr noundef %0) #1 {
  %2 = alloca ptr, align 8
  store ptr %0, ptr %2, align 8, !tbaa !8
  %3 = load ptr, ptr %2, align 8, !tbaa !8
  %4 = call zeroext i1 @lean_is_scalar(ptr noundef %3)
  br i1 %4, label %7, label %5

5:                                                ; preds = %1
  %6 = load ptr, ptr %2, align 8, !tbaa !8
  call void @lean_dec_ref(ptr noundef %6)
  br label %7

7:                                                ; preds = %5, %1
  ret void
}

; Function Attrs: nounwind uwtable
define ptr @l_Std_Range_forIn_x27_loop___at_Lean_Meta_Grind_Canon_canonImpl_visit___spec__10___lambda__4___boxed(ptr noundef %0) #2 {
  %2 = alloca ptr, align 8
  %3 = alloca ptr, align 8
  %4 = alloca ptr, align 8
  %5 = alloca ptr, align 8
  %6 = alloca ptr, align 8
  %7 = alloca ptr, align 8
  %8 = alloca ptr, align 8
  %9 = alloca ptr, align 8
  %10 = alloca ptr, align 8
  %11 = alloca ptr, align 8
  %12 = alloca ptr, align 8
  %13 = alloca ptr, align 8
  %14 = alloca ptr, align 8
  %15 = alloca ptr, align 8
  %16 = alloca ptr, align 8
  %17 = alloca ptr, align 8
  %18 = alloca ptr, align 8
  %19 = alloca ptr, align 8
  %20 = alloca ptr, align 8
  %21 = alloca ptr, align 8
  %22 = alloca ptr, align 8
  %23 = alloca ptr, align 8
  %24 = alloca ptr, align 8
  %25 = alloca ptr, align 8
  %26 = alloca ptr, align 8
  %27 = alloca ptr, align 8
  %28 = alloca ptr, align 8
  %29 = alloca ptr, align 8
  %30 = alloca ptr, align 8
  store ptr %0, ptr %2, align 8, !tbaa !10
  call void @llvm.lifetime.start.p0(i64 8, ptr %3) #7
  %31 = load ptr, ptr %2, align 8, !tbaa !10
  %32 = getelementptr inbounds ptr, ptr %31, i64 0
  %33 = load ptr, ptr %32, align 8, !tbaa !8
  store ptr %33, ptr %3, align 8, !tbaa !8
  call void @llvm.lifetime.start.p0(i64 8, ptr %4) #7
  %34 = load ptr, ptr %2, align 8, !tbaa !10
  %35 = getelementptr inbounds ptr, ptr %34, i64 1
  %36 = load ptr, ptr %35, align 8, !tbaa !8
  store ptr %36, ptr %4, align 8, !tbaa !8
  call void @llvm.lifetime.start.p0(i64 8, ptr %5) #7
  %37 = load ptr, ptr %2, align 8, !tbaa !10
  %38 = getelementptr inbounds ptr, ptr %37, i64 2
  %39 = load ptr, ptr %38, align 8, !tbaa !8
  store ptr %39, ptr %5, align 8, !tbaa !8
  call void @llvm.lifetime.start.p0(i64 8, ptr %6) #7
  %40 = load ptr, ptr %2, align 8, !tbaa !10
  %41 = getelementptr inbounds ptr, ptr %40, i64 3
  %42 = load ptr, ptr %41, align 8, !tbaa !8
  store ptr %42, ptr %6, align 8, !tbaa !8
  call void @llvm.lifetime.start.p0(i64 8, ptr %7) #7
  %43 = load ptr, ptr %2, align 8, !tbaa !10
  %44 = getelementptr inbounds ptr, ptr %43, i64 4
  %45 = load ptr, ptr %44, align 8, !tbaa !8
  store ptr %45, ptr %7, align 8, !tbaa !8
  call void @llvm.lifetime.start.p0(i64 8, ptr %8) #7
  %46 = load ptr, ptr %2, align 8, !tbaa !10
  %47 = getelementptr inbounds ptr, ptr %46, i64 5
  %48 = load ptr, ptr %47, align 8, !tbaa !8
  store ptr %48, ptr %8, align 8, !tbaa !8
  call void @llvm.lifetime.start.p0(i64 8, ptr %9) #7
  %49 = load ptr, ptr %2, align 8, !tbaa !10
  %50 = getelementptr inbounds ptr, ptr %49, i64 6
  %51 = load ptr, ptr %50, align 8, !tbaa !8
  store ptr %51, ptr %9, align 8, !tbaa !8
  call void @llvm.lifetime.start.p0(i64 8, ptr %10) #7
  %52 = load ptr, ptr %2, align 8, !tbaa !10
  %53 = getelementptr inbounds ptr, ptr %52, i64 7
  %54 = load ptr, ptr %53, align 8, !tbaa !8
  store ptr %54, ptr %10, align 8, !tbaa !8
  call void @llvm.lifetime.start.p0(i64 8, ptr %11) #7
  %55 = load ptr, ptr %2, align 8, !tbaa !10
  %56 = getelementptr inbounds ptr, ptr %55, i64 8
  %57 = load ptr, ptr %56, align 8, !tbaa !8
  store ptr %57, ptr %11, align 8, !tbaa !8
  call void @llvm.lifetime.start.p0(i64 8, ptr %12) #7
  %58 = load ptr, ptr %2, align 8, !tbaa !10
  %59 = getelementptr inbounds ptr, ptr %58, i64 9
  %60 = load ptr, ptr %59, align 8, !tbaa !8
  store ptr %60, ptr %12, align 8, !tbaa !8
  call void @llvm.lifetime.start.p0(i64 8, ptr %13) #7
  %61 = load ptr, ptr %2, align 8, !tbaa !10
  %62 = getelementptr inbounds ptr, ptr %61, i64 10
  %63 = load ptr, ptr %62, align 8, !tbaa !8
  store ptr %63, ptr %13, align 8, !tbaa !8
  call void @llvm.lifetime.start.p0(i64 8, ptr %14) #7
  %64 = load ptr, ptr %2, align 8, !tbaa !10
  %65 = getelementptr inbounds ptr, ptr %64, i64 11
  %66 = load ptr, ptr %65, align 8, !tbaa !8
  store ptr %66, ptr %14, align 8, !tbaa !8
  call void @llvm.lifetime.start.p0(i64 8, ptr %15) #7
  %67 = load ptr, ptr %2, align 8, !tbaa !10
  %68 = getelementptr inbounds ptr, ptr %67, i64 12
  %69 = load ptr, ptr %68, align 8, !tbaa !8
  store ptr %69, ptr %15, align 8, !tbaa !8
  call void @llvm.lifetime.start.p0(i64 8, ptr %16) #7
  %70 = load ptr, ptr %2, align 8, !tbaa !10
  %71 = getelementptr inbounds ptr, ptr %70, i64 13
  %72 = load ptr, ptr %71, align 8, !tbaa !8
  store ptr %72, ptr %16, align 8, !tbaa !8
  call void @llvm.lifetime.start.p0(i64 8, ptr %17) #7
  %73 = load ptr, ptr %2, align 8, !tbaa !10
  %74 = getelementptr inbounds ptr, ptr %73, i64 14
  %75 = load ptr, ptr %74, align 8, !tbaa !8
  store ptr %75, ptr %17, align 8, !tbaa !8
  call void @llvm.lifetime.start.p0(i64 8, ptr %18) #7
  %76 = load ptr, ptr %2, align 8, !tbaa !10
  %77 = getelementptr inbounds ptr, ptr %76, i64 15
  %78 = load ptr, ptr %77, align 8, !tbaa !8
  store ptr %78, ptr %18, align 8, !tbaa !8
  call void @llvm.lifetime.start.p0(i64 8, ptr %19) #7
  %79 = load ptr, ptr %2, align 8, !tbaa !10
  %80 = getelementptr inbounds ptr, ptr %79, i64 16
  %81 = load ptr, ptr %80, align 8, !tbaa !8
  store ptr %81, ptr %19, align 8, !tbaa !8
  call void @llvm.lifetime.start.p0(i64 8, ptr %20) #7
  %82 = load ptr, ptr %2, align 8, !tbaa !10
  %83 = getelementptr inbounds ptr, ptr %82, i64 17
  %84 = load ptr, ptr %83, align 8, !tbaa !8
  store ptr %84, ptr %20, align 8, !tbaa !8
  call void @llvm.lifetime.start.p0(i64 8, ptr %21) #7
  %85 = load ptr, ptr %2, align 8, !tbaa !10
  %86 = getelementptr inbounds ptr, ptr %85, i64 18
  %87 = load ptr, ptr %86, align 8, !tbaa !8
  store ptr %87, ptr %21, align 8, !tbaa !8
  call void @llvm.lifetime.start.p0(i64 8, ptr %22) #7
  %88 = load ptr, ptr %2, align 8, !tbaa !10
  %89 = getelementptr inbounds ptr, ptr %88, i64 19
  %90 = load ptr, ptr %89, align 8, !tbaa !8
  store ptr %90, ptr %22, align 8, !tbaa !8
  call void @llvm.lifetime.start.p0(i64 8, ptr %23) #7
  %91 = load ptr, ptr %2, align 8, !tbaa !10
  %92 = getelementptr inbounds ptr, ptr %91, i64 20
  %93 = load ptr, ptr %92, align 8, !tbaa !8
  store ptr %93, ptr %23, align 8, !tbaa !8
  call void @llvm.lifetime.start.p0(i64 8, ptr %24) #7
  %94 = load ptr, ptr %2, align 8, !tbaa !10
  %95 = getelementptr inbounds ptr, ptr %94, i64 21
  %96 = load ptr, ptr %95, align 8, !tbaa !8
  store ptr %96, ptr %24, align 8, !tbaa !8
  call void @llvm.lifetime.start.p0(i64 8, ptr %25) #7
  %97 = load ptr, ptr %2, align 8, !tbaa !10
  %98 = getelementptr inbounds ptr, ptr %97, i64 22
  %99 = load ptr, ptr %98, align 8, !tbaa !8
  store ptr %99, ptr %25, align 8, !tbaa !8
  call void @llvm.lifetime.start.p0(i64 8, ptr %26) #7
  %100 = load ptr, ptr %2, align 8, !tbaa !10
  %101 = getelementptr inbounds ptr, ptr %100, i64 23
  %102 = load ptr, ptr %101, align 8, !tbaa !8
  store ptr %102, ptr %26, align 8, !tbaa !8
  call void @llvm.lifetime.start.p0(i64 8, ptr %27) #7
  %103 = load ptr, ptr %2, align 8, !tbaa !10
  %104 = getelementptr inbounds ptr, ptr %103, i64 24
  %105 = load ptr, ptr %104, align 8, !tbaa !8
  store ptr %105, ptr %27, align 8, !tbaa !8
  call void @llvm.lifetime.start.p0(i64 8, ptr %28) #7
  %106 = load ptr, ptr %2, align 8, !tbaa !10
  %107 = getelementptr inbounds ptr, ptr %106, i64 25
  %108 = load ptr, ptr %107, align 8, !tbaa !8
  store ptr %108, ptr %28, align 8, !tbaa !8
  call void @llvm.lifetime.start.p0(i64 8, ptr %29) #7
  %109 = load ptr, ptr %2, align 8, !tbaa !10
  %110 = getelementptr inbounds ptr, ptr %109, i64 26
  %111 = load ptr, ptr %110, align 8, !tbaa !8
  store ptr %111, ptr %29, align 8, !tbaa !8
  br label %112

112:                                              ; preds = %1
  call void @llvm.lifetime.start.p0(i64 8, ptr %30) #7
  %113 = load ptr, ptr %3, align 8, !tbaa !8
  %114 = load ptr, ptr %4, align 8, !tbaa !8
  %115 = load ptr, ptr %5, align 8, !tbaa !8
  %116 = load ptr, ptr %6, align 8, !tbaa !8
  %117 = load ptr, ptr %7, align 8, !tbaa !8
  %118 = load ptr, ptr %8, align 8, !tbaa !8
  %119 = load ptr, ptr %9, align 8, !tbaa !8
  %120 = load ptr, ptr %10, align 8, !tbaa !8
  %121 = load ptr, ptr %11, align 8, !tbaa !8
  %122 = load ptr, ptr %12, align 8, !tbaa !8
  %123 = load ptr, ptr %13, align 8, !tbaa !8
  %124 = load ptr, ptr %14, align 8, !tbaa !8
  %125 = load ptr, ptr %15, align 8, !tbaa !8
  %126 = load ptr, ptr %16, align 8, !tbaa !8
  %127 = load ptr, ptr %17, align 8, !tbaa !8
  %128 = load ptr, ptr %18, align 8, !tbaa !8
  %129 = load ptr, ptr %19, align 8, !tbaa !8
  %130 = load ptr, ptr %20, align 8, !tbaa !8
  %131 = load ptr, ptr %21, align 8, !tbaa !8
  %132 = load ptr, ptr %22, align 8, !tbaa !8
  %133 = load ptr, ptr %23, align 8, !tbaa !8
  %134 = load ptr, ptr %24, align 8, !tbaa !8
  %135 = load ptr, ptr %25, align 8, !tbaa !8
  %136 = load ptr, ptr %26, align 8, !tbaa !8
  %137 = load ptr, ptr %27, align 8, !tbaa !8
  %138 = load ptr, ptr %28, align 8, !tbaa !8
  %139 = load ptr, ptr %29, align 8, !tbaa !8
  %140 = call ptr @l_Std_Range_forIn_x27_loop___at_Lean_Meta_Grind_Canon_canonImpl_visit___spec__10___lambda__4(ptr noundef %113, ptr noundef %114, ptr noundef %115, ptr noundef %116, ptr noundef %117, ptr noundef %118, ptr noundef %119, ptr noundef %120, ptr noundef %121, ptr noundef %122, ptr noundef %123, ptr noundef %124, ptr noundef %125, ptr noundef %126, ptr noundef %127, ptr noundef %128, ptr noundef %129, ptr noundef %130, ptr noundef %131, ptr noundef %132, ptr noundef %133, ptr noundef %134, ptr noundef %135, ptr noundef %136, ptr noundef %137, ptr noundef %138, ptr noundef %139)
  store ptr %140, ptr %30, align 8, !tbaa !8
  %141 = load ptr, ptr %5, align 8, !tbaa !8
  call void @lean_dec(ptr noundef %141)
  %142 = load ptr, ptr %30, align 8, !tbaa !8
  call void @llvm.lifetime.end.p0(i64 8, ptr %30) #7
  call void @llvm.lifetime.end.p0(i64 8, ptr %29) #7
  call void @llvm.lifetime.end.p0(i64 8, ptr %28) #7
  call void @llvm.lifetime.end.p0(i64 8, ptr %27) #7
  call void @llvm.lifetime.end.p0(i64 8, ptr %26) #7
  call void @llvm.lifetime.end.p0(i64 8, ptr %25) #7
  call void @llvm.lifetime.end.p0(i64 8, ptr %24) #7
  call void @llvm.lifetime.end.p0(i64 8, ptr %23) #7
  call void @llvm.lifetime.end.p0(i64 8, ptr %22) #7
  call void @llvm.lifetime.end.p0(i64 8, ptr %21) #7
  call void @llvm.lifetime.end.p0(i64 8, ptr %20) #7
  call void @llvm.lifetime.end.p0(i64 8, ptr %19) #7
  call void @llvm.lifetime.end.p0(i64 8, ptr %18) #7
  call void @llvm.lifetime.end.p0(i64 8, ptr %17) #7
  call void @llvm.lifetime.end.p0(i64 8, ptr %16) #7
  call void @llvm.lifetime.end.p0(i64 8, ptr %15) #7
  call void @llvm.lifetime.end.p0(i64 8, ptr %14) #7
  call void @llvm.lifetime.end.p0(i64 8, ptr %13) #7
  call void @llvm.lifetime.end.p0(i64 8, ptr %12) #7
  call void @llvm.lifetime.end.p0(i64 8, ptr %11) #7
  call void @llvm.lifetime.end.p0(i64 8, ptr %10) #7
  call void @llvm.lifetime.end.p0(i64 8, ptr %9) #7
  call void @llvm.lifetime.end.p0(i64 8, ptr %8) #7
  call void @llvm.lifetime.end.p0(i64 8, ptr %7) #7
  call void @llvm.lifetime.end.p0(i64 8, ptr %6) #7
  call void @llvm.lifetime.end.p0(i64 8, ptr %5) #7
  call void @llvm.lifetime.end.p0(i64 8, ptr %4) #7
  call void @llvm.lifetime.end.p0(i64 8, ptr %3) #7
  ret ptr %142
}